target datalayout = "e-m:e-p270:32:32-p271:32:32-p272:64:64-i64:64-i128:128-f80:128-n8:16:32:64-S128"
target triple = "x86_64-pc-linux-gnu"

%struct.ossl_param_st = type { ptr, i32, ptr, i64, i64 }

@.str = private unnamed_addr constant [28 x i8] c"../openssl/test/rand_test.c\00", align 1
@.str.3 = private unnamed_addr constant [10 x i8] c"TEST-RAND\00", align 1
@.str.11 = private unnamed_addr constant [13 x i8] c"test_entropy\00", align 1
@.str.15 = private unnamed_addr constant [2 x i8] c"0\00", align 1
@.str.21 = private unnamed_addr constant [15 x i8] c"fips-indicator\00", align 1
@.str.23 = private unnamed_addr constant [10 x i8] c"indicator\00", align 1
@.str.29 = private unnamed_addr constant [56 x i8] c"parent_alg = EVP_RAND_fetch(NULL, \22TEST-RAND\22, \22-fips\22)\00", align 1
@.str.30 = private unnamed_addr constant [6 x i8] c"-fips\00", align 1
@.str.31 = private unnamed_addr constant [55 x i8] c"crngt_alg = EVP_RAND_fetch(NULL, \22CRNG-TEST\22, \22-fips\22)\00", align 1
@.str.32 = private unnamed_addr constant [10 x i8] c"CRNG-TEST\00", align 1
@.str.33 = private unnamed_addr constant [44 x i8] c"parent = EVP_RAND_CTX_new(parent_alg, NULL)\00", align 1
@.str.34 = private unnamed_addr constant [44 x i8] c"crngt = EVP_RAND_CTX_new(crngt_alg, parent)\00", align 1
@.str.35 = private unnamed_addr constant [65 x i8] c"EVP_RAND_instantiate(parent, 0, 0, (unsigned char *)\22abc\22, 3, p)\00", align 1
@.str.36 = private unnamed_addr constant [4 x i8] c"abc\00", align 1
@.str.37 = private unnamed_addr constant [67 x i8] c"EVP_RAND_instantiate(crngt, 0, 0, (unsigned char *)\22def\22, 3, NULL)\00", align 1
@.str.38 = private unnamed_addr constant [4 x i8] c"def\00", align 1
@.str.39 = private unnamed_addr constant [4 x i8] c"gen\00", align 1
@.str.40 = private unnamed_addr constant [12 x i8] c"sizeof(out)\00", align 1
@.str.41 = private unnamed_addr constant [34 x i8] c"EVP_RAND_CTX_get_params(crngt, p)\00", align 1

; Function Attrs: nounwind uwtable
define internal i32 @fips_health_test_one(ptr noundef %0, i64 noundef %1, i64 noundef %2) #0 {
  %4 = alloca ptr, align 8
  %5 = alloca i64, align 8
  %6 = alloca i64, align 8
  %7 = alloca i32, align 4
  %8 = alloca ptr, align 8
  %9 = alloca ptr, align 8
  %10 = alloca ptr, align 8
  %11 = alloca ptr, align 8
  %12 = alloca [2 x %struct.ossl_param_st], align 16
  %13 = alloca [1000 x i8], align 16
  %14 = alloca i32, align 4
  %15 = alloca %struct.ossl_param_st, align 8
  %16 = alloca %struct.ossl_param_st, align 8
  %17 = alloca %struct.ossl_param_st, align 8
  store ptr %0, ptr %4, align 8, !tbaa !4
  store i64 %1, ptr %5, align 8, !tbaa !15
  store i64 %2, ptr %6, align 8, !tbaa !15
  call void @llvm.lifetime.start.p0(i64 4, ptr %7) #8
  store i32 0, ptr %7, align 4, !tbaa !9
  call void @llvm.lifetime.start.p0(i64 8, ptr %8) #8
  store ptr null, ptr %8, align 8, !tbaa !31
  call void @llvm.lifetime.start.p0(i64 8, ptr %9) #8
  store ptr null, ptr %9, align 8, !tbaa !31
  call void @llvm.lifetime.start.p0(i64 8, ptr %10) #8
  store ptr null, ptr %10, align 8, !tbaa !17
  call void @llvm.lifetime.start.p0(i64 8, ptr %11) #8
  store ptr null, ptr %11, align 8, !tbaa !17
  call void @llvm.lifetime.start.p0(i64 80, ptr %12) #8
  call void @llvm.lifetime.start.p0(i64 1000, ptr %13) #8
  call void @llvm.lifetime.start.p0(i64 4, ptr %14) #8
  store i32 -1, ptr %14, align 4, !tbaa !9
  %18 = getelementptr inbounds [2 x %struct.ossl_param_st], ptr %12, i64 0, i64 0
  call void @llvm.lifetime.start.p0(i64 40, ptr %15) #8
  %19 = load ptr, ptr %4, align 8, !tbaa !4
  %20 = load i64, ptr %5, align 8, !tbaa !15
  call void @OSSL_PARAM_construct_octet_string(ptr dead_on_unwind writable sret(%struct.ossl_param_st) align 8 %15, ptr noundef @.str.11, ptr noundef %19, i64 noundef %20)
  call void @llvm.memcpy.p0.p0.i64(ptr align 16 %18, ptr align 8 %15, i64 40, i1 false), !tbaa.struct !13
  call void @llvm.lifetime.end.p0(i64 40, ptr %15) #8
  %21 = getelementptr inbounds [2 x %struct.ossl_param_st], ptr %12, i64 0, i64 1
  call void @llvm.lifetime.start.p0(i64 40, ptr %16) #8
  call void @OSSL_PARAM_construct_end(ptr dead_on_unwind writable sret(%struct.ossl_param_st) align 8 %16)
  call void @llvm.memcpy.p0.p0.i64(ptr align 8 %21, ptr align 8 %16, i64 40, i1 false), !tbaa.struct !13
  call void @llvm.lifetime.end.p0(i64 40, ptr %16) #8
  %22 = call ptr @EVP_RAND_fetch(ptr noundef null, ptr noundef @.str.3, ptr noundef @.str.30)
  store ptr %22, ptr %9, align 8, !tbaa !31
  %23 = call i32 @test_ptr(ptr noundef @.str, i32 noundef 111, ptr noundef @.str.29, ptr noundef %22)
  %24 = icmp ne i32 %23, 0
  br i1 %24, label %25, label %59

25:                                               ; preds = %3
  %26 = call ptr @EVP_RAND_fetch(ptr noundef null, ptr noundef @.str.32, ptr noundef @.str.30)
  store ptr %26, ptr %8, align 8, !tbaa !31
  %27 = call i32 @test_ptr(ptr noundef @.str, i32 noundef 112, ptr noundef @.str.31, ptr noundef %26)
  %28 = icmp ne i32 %27, 0
  br i1 %28, label %29, label %59

29:                                               ; preds = %25
  %30 = load ptr, ptr %9, align 8, !tbaa !31
  %31 = call ptr @EVP_RAND_CTX_new(ptr noundef %30, ptr noundef null)
  store ptr %31, ptr %11, align 8, !tbaa !17
  %32 = call i32 @test_ptr(ptr noundef @.str, i32 noundef 113, ptr noundef @.str.33, ptr noundef %31)
  %33 = icmp ne i32 %32, 0
  br i1 %33, label %34, label %59

34:                                               ; preds = %29
  %35 = load ptr, ptr %8, align 8, !tbaa !31
  %36 = load ptr, ptr %11, align 8, !tbaa !17
  %37 = call ptr @EVP_RAND_CTX_new(ptr noundef %35, ptr noundef %36)
  store ptr %37, ptr %10, align 8, !tbaa !17
  %38 = call i32 @test_ptr(ptr noundef @.str, i32 noundef 114, ptr noundef @.str.34, ptr noundef %37)
  %39 = icmp ne i32 %38, 0
  br i1 %39, label %40, label %59

40:                                               ; preds = %34
  %41 = load ptr, ptr %11, align 8, !tbaa !17
  %42 = getelementptr inbounds [2 x %struct.ossl_param_st], ptr %12, i64 0, i64 0
  %43 = call i32 @EVP_RAND_instantiate(ptr noundef %41, i32 noundef 0, i32 noundef 0, ptr noundef @.str.36, i64 noundef 3, ptr noundef %42)
  %44 = icmp ne i32 %43, 0
  %45 = zext i1 %44 to i32
  %46 = call i32 @test_true(ptr noundef @.str, i32 noundef 116, ptr noundef @.str.35, i32 noundef %45)
  %47 = icmp ne i32 %46, 0
  br i1 %47, label %48, label %59

48:                                               ; preds = %40
  %49 = load ptr, ptr %10, align 8, !tbaa !17
  %50 = call i32 @EVP_RAND_instantiate(ptr noundef %49, i32 noundef 0, i32 noundef 0, ptr noundef @.str.38, i64 noundef 3, ptr noundef null)
  %51 = icmp ne i32 %50, 0
  %52 = zext i1 %51 to i32
  %53 = call i32 @test_true(ptr noundef @.str, i32 noundef 118, ptr noundef @.str.37, i32 noundef %52)
  %54 = icmp ne i32 %53, 0
  br i1 %54, label %55, label %59

55:                                               ; preds = %48
  %56 = load i64, ptr %6, align 8, !tbaa !15
  %57 = call i32 @test_size_t_le(ptr noundef @.str, i32 noundef 119, ptr noundef @.str.39, ptr noundef @.str.40, i64 noundef %56, i64 noundef 1000)
  %58 = icmp ne i32 %57, 0
  br i1 %58, label %60, label %59

59:                                               ; preds = %55, %48, %40, %34, %29, %25, %3
  br label %81

60:                                               ; preds = %55
  %61 = getelementptr inbounds [2 x %struct.ossl_param_st], ptr %12, i64 0, i64 0
  call void @llvm.lifetime.start.p0(i64 40, ptr %17) #8
  call void @OSSL_PARAM_construct_int(ptr dead_on_unwind writable sret(%struct.ossl_param_st) align 8 %17, ptr noundef @.str.21, ptr noundef %14)
  call void @llvm.memcpy.p0.p0.i64(ptr align 16 %61, ptr align 8 %17, i64 40, i1 false), !tbaa.struct !13
  call void @llvm.lifetime.end.p0(i64 40, ptr %17) #8
  %62 = load ptr, ptr %10, align 8, !tbaa !17
  %63 = getelementptr inbounds [2 x %struct.ossl_param_st], ptr %12, i64 0, i64 0
  %64 = call i32 @EVP_RAND_CTX_get_params(ptr noundef %62, ptr noundef %63)
  %65 = icmp ne i32 %64, 0
  %66 = zext i1 %65 to i32
  %67 = call i32 @test_true(ptr noundef @.str, i32 noundef 125, ptr noundef @.str.41, i32 noundef %66)
  %68 = icmp ne i32 %67, 0
  br i1 %68, label %69, label %73

69:                                               ; preds = %60
  %70 = load i32, ptr %14, align 4, !tbaa !9
  %71 = call i32 @test_int_le(ptr noundef @.str, i32 noundef 126, ptr noundef @.str.23, ptr noundef @.str.15, i32 noundef %70, i32 noundef 0)
  %72 = icmp ne i32 %71, 0
  br i1 %72, label %74, label %73

73:                                               ; preds = %69, %60
  br label %81

74:                                               ; preds = %69
  %75 = call i32 @ERR_set_mark()
  %76 = load ptr, ptr %10, align 8, !tbaa !17
  %77 = getelementptr inbounds [1000 x i8], ptr %13, i64 0, i64 0
  %78 = load i64, ptr %6, align 8, !tbaa !15
  %79 = call i32 @EVP_RAND_generate(ptr noundef %76, ptr noundef %77, i64 noundef %78, i32 noundef 0, i32 noundef 0, ptr noundef null, i64 noundef 0)
  store i32 %79, ptr %7, align 4, !tbaa !9
  %80 = call i32 @ERR_pop_to_mark()
  br label %81

81:                                               ; preds = %74, %73, %59
  %82 = load ptr, ptr %10, align 8, !tbaa !17
  call void @EVP_RAND_CTX_free(ptr noundef %82)
  %83 = load ptr, ptr %11, align 8, !tbaa !17
  call void @EVP_RAND_CTX_free(ptr noundef %83)
  %84 = load ptr, ptr %8, align 8, !tbaa !31
  call void @EVP_RAND_free(ptr noundef %84)
  %85 = load ptr, ptr %9, align 8, !tbaa !31
  call void @EVP_RAND_free(ptr noundef %85)
  %86 = load i32, ptr %7, align 4, !tbaa !9
  call void @llvm.lifetime.end.p0(i64 4, ptr %14) #8
  call void @llvm.lifetime.end.p0(i64 1000, ptr %13) #8
  call void @llvm.lifetime.end.p0(i64 80, ptr %12) #8
  call void @llvm.lifetime.end.p0(i64 8, ptr %11) #8
  call void @llvm.lifetime.end.p0(i64 8, ptr %10) #8
  call void @llvm.lifetime.end.p0(i64 8, ptr %9) #8
  call void @llvm.lifetime.end.p0(i64 8, ptr %8) #8
  call void @llvm.lifetime.end.p0(i64 4, ptr %7) #8
  ret i32 %86
}