; Function Attrs: nounwind uwtable
define internal fastcc i32 @fips_health_test_one(ptr noundef nonnull %0, i64 noundef range(i64 20, 0) %1, i64 noundef range(i64 20, 0) %2) unnamed_addr #0 {
  %4 = alloca [2 x %struct.ossl_param_st], align 16
  %5 = alloca [1000 x i8], align 16
  %6 = alloca i32, align 4
  %7 = alloca %struct.ossl_param_st, align 8
  %8 = alloca %struct.ossl_param_st, align 8
  call void @llvm.lifetime.start.p0(i64 80, ptr nonnull %4) #11
  call void @llvm.lifetime.start.p0(i64 1000, ptr nonnull %5) #11
  call void @llvm.lifetime.start.p0(i64 4, ptr nonnull %6) #11
  store i32 -1, ptr %6, align 4, !tbaa !4
  call void @OSSL_PARAM_construct_octet_string(ptr dead_on_unwind nonnull writable sret(%struct.ossl_param_st) align 8 %4, ptr noundef nonnull @.str.11, ptr noundef nonnull %0, i64 noundef %1) #11
  %9 = getelementptr inbounds nuw i8, ptr %4, i64 40
  call void @llvm.lifetime.start.p0(i64 40, ptr nonnull %7) #11
  call void @OSSL_PARAM_construct_end(ptr dead_on_unwind nonnull writable sret(%struct.ossl_param_st) align 8 %7) #11
  call void @llvm.memcpy.p0.p0.i64(ptr noundef nonnull align 8 dereferenceable(40) %9, ptr noundef nonnull align 8 dereferenceable(40) %7, i64 40, i1 false), !tbaa.struct !8
  call void @llvm.lifetime.end.p0(i64 40, ptr nonnull %7) #11
  %10 = call ptr @EVP_RAND_fetch(ptr noundef null, ptr noundef nonnull @.str.3, ptr noundef nonnull @.str.30) #11
  %11 = call i32 @test_ptr(ptr noundef nonnull @.str, i32 noundef 111, ptr noundef nonnull @.str.29, ptr noundef %10) #11
  %.not = icmp eq i32 %11, 0
  br i1 %.not, label %45, label %12

12:                                               ; preds = %3
  %13 = call ptr @EVP_RAND_fetch(ptr noundef null, ptr noundef nonnull @.str.32, ptr noundef nonnull @.str.30) #11
  %14 = call i32 @test_ptr(ptr noundef nonnull @.str, i32 noundef 112, ptr noundef nonnull @.str.31, ptr noundef %13) #11
  %.not18 = icmp eq i32 %14, 0
  br i1 %.not18, label %45, label %15

15:                                               ; preds = %12
  %16 = call ptr @EVP_RAND_CTX_new(ptr noundef %10, ptr noundef null) #11
  %17 = call i32 @test_ptr(ptr noundef nonnull @.str, i32 noundef 113, ptr noundef nonnull @.str.33, ptr noundef %16) #11
  %.not19 = icmp eq i32 %17, 0
  br i1 %.not19, label %45, label %18

18:                                               ; preds = %15
  %19 = call ptr @EVP_RAND_CTX_new(ptr noundef %13, ptr noundef %16) #11
  %20 = call i32 @test_ptr(ptr noundef nonnull @.str, i32 noundef 114, ptr noundef nonnull @.str.34, ptr noundef %19) #11
  %.not20 = icmp eq i32 %20, 0
  br i1 %.not20, label %45, label %21

21:                                               ; preds = %18
  %22 = call i32 @EVP_RAND_instantiate(ptr noundef %16, i32 noundef 0, i32 noundef 0, ptr noundef nonnull @.str.36, i64 noundef 3, ptr noundef nonnull %4) #11
  %23 = icmp ne i32 %22, 0
  %24 = zext i1 %23 to i32
  %25 = call i32 @test_true(ptr noundef nonnull @.str, i32 noundef 116, ptr noundef nonnull @.str.35, i32 noundef %24) #11
  %.not21 = icmp eq i32 %25, 0
  br i1 %.not21, label %45, label %26

26:                                               ; preds = %21
  %27 = call i32 @EVP_RAND_instantiate(ptr noundef %19, i32 noundef 0, i32 noundef 0, ptr noundef nonnull @.str.38, i64 noundef 3, ptr noundef null) #11
  %28 = icmp ne i32 %27, 0
  %29 = zext i1 %28 to i32
  %30 = call i32 @test_true(ptr noundef nonnull @.str, i32 noundef 118, ptr noundef nonnull @.str.37, i32 noundef %29) #11
  %.not22 = icmp eq i32 %30, 0
  br i1 %.not22, label %45, label %31

31:                                               ; preds = %26
  %32 = call i32 @test_size_t_le(ptr noundef nonnull @.str, i32 noundef 119, ptr noundef nonnull @.str.39, ptr noundef nonnull @.str.40, i64 noundef %2, i64 noundef 1000) #11
  %.not23 = icmp eq i32 %32, 0
  br i1 %.not23, label %45, label %33

33:                                               ; preds = %31
  call void @llvm.lifetime.start.p0(i64 40, ptr nonnull %8) #11
  call void @OSSL_PARAM_construct_int(ptr dead_on_unwind nonnull writable sret(%struct.ossl_param_st) align 8 %8, ptr noundef nonnull @.str.21, ptr noundef nonnull %6) #11
  call void @llvm.memcpy.p0.p0.i64(ptr noundef nonnull align 16 dereferenceable(40) %4, ptr noundef nonnull align 8 dereferenceable(40) %8, i64 40, i1 false), !tbaa.struct !8
  call void @llvm.lifetime.end.p0(i64 40, ptr nonnull %8) #11
  %34 = call i32 @EVP_RAND_CTX_get_params(ptr noundef %19, ptr noundef nonnull %4) #11
  %35 = icmp ne i32 %34, 0
  %36 = zext i1 %35 to i32
  %37 = call i32 @test_true(ptr noundef nonnull @.str, i32 noundef 125, ptr noundef nonnull @.str.41, i32 noundef %36) #11
  %.not24 = icmp eq i32 %37, 0
  br i1 %.not24, label %45, label %38

38:                                               ; preds = %33
  %39 = load i32, ptr %6, align 4, !tbaa !4
  %40 = call i32 @test_int_le(ptr noundef nonnull @.str, i32 noundef 126, ptr noundef nonnull @.str.23, ptr noundef nonnull @.str.15, i32 noundef %39, i32 noundef 0) #11
  %.not25 = icmp eq i32 %40, 0
  br i1 %.not25, label %45, label %41

41:                                               ; preds = %38
  %42 = call i32 @ERR_set_mark() #11
  %43 = call i32 @EVP_RAND_generate(ptr noundef %19, ptr noundef nonnull %5, i64 noundef %2, i32 noundef 0, i32 noundef 0, ptr noundef null, i64 noundef 0) #11
  %44 = call i32 @ERR_pop_to_mark() #11
  br label %45

45:                                               ; preds = %33, %38, %3, %12, %15, %18, %21, %26, %31, %41
  %.017 = phi i32 [ %43, %41 ], [ 0, %38 ], [ 0, %33 ], [ 0, %31 ], [ 0, %26 ], [ 0, %21 ], [ 0, %18 ], [ 0, %15 ], [ 0, %12 ], [ 0, %3 ]
  %.016 = phi ptr [ %13, %41 ], [ %13, %38 ], [ %13, %33 ], [ %13, %31 ], [ %13, %26 ], [ %13, %21 ], [ %13, %18 ], [ %13, %15 ], [ %13, %12 ], [ null, %3 ]
  %.015 = phi ptr [ %19, %41 ], [ %19, %38 ], [ %19, %33 ], [ %19, %31 ], [ %19, %26 ], [ %19, %21 ], [ %19, %18 ], [ null, %15 ], [ null, %12 ], [ null, %3 ]
  %.0 = phi ptr [ %16, %41 ], [ %16, %38 ], [ %16, %33 ], [ %16, %31 ], [ %16, %26 ], [ %16, %21 ], [ %16, %18 ], [ %16, %15 ], [ null, %12 ], [ null, %3 ]
  call void @EVP_RAND_CTX_free(ptr noundef %.015) #11
  call void @EVP_RAND_CTX_free(ptr noundef %.0) #11
  call void @EVP_RAND_free(ptr noundef %.016) #11
  call void @EVP_RAND_free(ptr noundef %10) #11
  call void @llvm.lifetime.end.p0(i64 4, ptr nonnull %6) #11
  call void @llvm.lifetime.end.p0(i64 1000, ptr nonnull %5) #11
  call void @llvm.lifetime.end.p0(i64 80, ptr nonnull %4) #11
  ret i32 %.017
}